; ModuleID = '31/88.c'
source_filename = "31/88.c"
target datalayout = "e-m:e-p270:32:32-p271:32:32-p272:64:64-i64:64-f80:128-n8:16:32:64-S128"
target triple = "x86_64-pc-linux-gnu"

%struct.student = type { [10 x i8], [30 x i8], i8, i32, [10 x i8], [20 x i8], %struct.student* }

@.str = private unnamed_addr constant [3 x i8] c"%s\00", align 1
@.str.1 = private unnamed_addr constant [4 x i8] c"end\00", align 1
@.str.2 = private unnamed_addr constant [15 x i8] c"%s %c %d %s %s\00", align 1
@.str.3 = private unnamed_addr constant [19 x i8] c"%s %s %c %d %s %s\0A\00", align 1

; Function Attrs: noinline nounwind uwtable
define dso_local %struct.student* @creat() #0 {
  %1 = alloca %struct.student*, align 8
  %2 = alloca %struct.student*, align 8
  %3 = call noalias i8* @malloc(i64 100) #4
  %4 = bitcast i8* %3 to %struct.student*
  store %struct.student* %4, %struct.student** %1, align 8
  %5 = load %struct.student*, %struct.student** %1, align 8
  %6 = getelementptr inbounds %struct.student, %struct.student* %5, i32 0, i32 0
  %7 = getelementptr inbounds [10 x i8], [10 x i8]* %6, i64 0, i64 0
  %8 = call i32 (i8*, ...) @__isoc99_scanf(i8* getelementptr inbounds ([3 x i8], [3 x i8]* @.str, i64 0, i64 0), i8* %7)
  %9 = load %struct.student*, %struct.student** %1, align 8
  %10 = getelementptr inbounds %struct.student, %struct.student* %9, i32 0, i32 0
  %11 = getelementptr inbounds [10 x i8], [10 x i8]* %10, i64 0, i64 0
  %12 = call i32 @strcmp(i8* %11, i8* getelementptr inbounds ([4 x i8], [4 x i8]* @.str.1, i64 0, i64 0)) #5
  %13 = icmp eq i32 %12, 0
  br i1 %13, label %14, label %15

14:                                               ; preds = %0
  store %struct.student* null, %struct.student** %1, align 8
  br label %30

15:                                               ; preds = %0
  %16 = load %struct.student*, %struct.student** %1, align 8
  %17 = getelementptr inbounds %struct.student, %struct.student* %16, i32 0, i32 1
  %18 = getelementptr inbounds [30 x i8], [30 x i8]* %17, i64 0, i64 0
  %19 = load %struct.student*, %struct.student** %1, align 8
  %20 = getelementptr inbounds %struct.student, %struct.student* %19, i32 0, i32 2
  %21 = load %struct.student*, %struct.student** %1, align 8
  %22 = getelementptr inbounds %struct.student, %struct.student* %21, i32 0, i32 3
  %23 = load %struct.student*, %struct.student** %1, align 8
  %24 = getelementptr inbounds %struct.student, %struct.student* %23, i32 0, i32 4
  %25 = getelementptr inbounds [10 x i8], [10 x i8]* %24, i64 0, i64 0
  %26 = load %struct.student*, %struct.student** %1, align 8
  %27 = getelementptr inbounds %struct.student, %struct.student* %26, i32 0, i32 5
  %28 = getelementptr inbounds [20 x i8], [20 x i8]* %27, i64 0, i64 0
  %29 = call i32 (i8*, ...) @__isoc99_scanf(i8* getelementptr inbounds ([15 x i8], [15 x i8]* @.str.2, i64 0, i64 0), i8* %18, i8* %20, i32* %22, i8* %25, i8* %28)
  br label %30

30:                                               ; preds = %15, %14
  %31 = load %struct.student*, %struct.student** %1, align 8
  %32 = getelementptr inbounds %struct.student, %struct.student* %31, i32 0, i32 6
  store %struct.student* null, %struct.student** %32, align 8
  br label %33

33:                                               ; preds = %30, %63
  %34 = load %struct.student*, %struct.student** %1, align 8
  store %struct.student* %34, %struct.student** %2, align 8
  %35 = call noalias i8* @malloc(i64 100) #4
  %36 = bitcast i8* %35 to %struct.student*
  store %struct.student* %36, %struct.student** %1, align 8
  %37 = load %struct.student*, %struct.student** %1, align 8
  %38 = getelementptr inbounds %struct.student, %struct.student* %37, i32 0, i32 0
  %39 = getelementptr inbounds [10 x i8], [10 x i8]* %38, i64 0, i64 0
  %40 = call i32 (i8*, ...) @__isoc99_scanf(i8* getelementptr inbounds ([3 x i8], [3 x i8]* @.str, i64 0, i64 0), i8* %39)
  %41 = load %struct.student*, %struct.student** %1, align 8
  %42 = getelementptr inbounds %struct.student, %struct.student* %41, i32 0, i32 0
  %43 = getelementptr inbounds [10 x i8], [10 x i8]* %42, i64 0, i64 0
  %44 = call i32 @strcmp(i8* %43, i8* getelementptr inbounds ([4 x i8], [4 x i8]* @.str.1, i64 0, i64 0)) #5
  %45 = icmp eq i32 %44, 0
  br i1 %45, label %46, label %48

46:                                               ; preds = %33
  %47 = load %struct.student*, %struct.student** %2, align 8
  store %struct.student* %47, %struct.student** %1, align 8
  br label %67

48:                                               ; preds = %33
  %49 = load %struct.student*, %struct.student** %1, align 8
  %50 = getelementptr inbounds %struct.student, %struct.student* %49, i32 0, i32 1
  %51 = getelementptr inbounds [30 x i8], [30 x i8]* %50, i64 0, i64 0
  %52 = load %struct.student*, %struct.student** %1, align 8
  %53 = getelementptr inbounds %struct.student, %struct.student* %52, i32 0, i32 2
  %54 = load %struct.student*, %struct.student** %1, align 8
  %55 = getelementptr inbounds %struct.student, %struct.student* %54, i32 0, i32 3
  %56 = load %struct.student*, %struct.student** %1, align 8
  %57 = getelementptr inbounds %struct.student, %struct.student* %56, i32 0, i32 4
  %58 = getelementptr inbounds [10 x i8], [10 x i8]* %57, i64 0, i64 0
  %59 = load %struct.student*, %struct.student** %1, align 8
  %60 = getelementptr inbounds %struct.student, %struct.student* %59, i32 0, i32 5
  %61 = getelementptr inbounds [20 x i8], [20 x i8]* %60, i64 0, i64 0
  %62 = call i32 (i8*, ...) @__isoc99_scanf(i8* getelementptr inbounds ([15 x i8], [15 x i8]* @.str.2, i64 0, i64 0), i8* %51, i8* %53, i32* %55, i8* %58, i8* %61)
  br label %63

63:                                               ; preds = %48
  %64 = load %struct.student*, %struct.student** %2, align 8
  %65 = load %struct.student*, %struct.student** %1, align 8
  %66 = getelementptr inbounds %struct.student, %struct.student* %65, i32 0, i32 6
  store %struct.student* %64, %struct.student** %66, align 8
  br label %33

67:                                               ; preds = %46
  %68 = load %struct.student*, %struct.student** %1, align 8
  ret %struct.student* %68
}

; Function Attrs: nounwind
declare dso_local noalias i8* @malloc(i64) #1

declare dso_local i32 @__isoc99_scanf(i8*, ...) #2

; Function Attrs: nounwind readonly
declare dso_local i32 @strcmp(i8*, i8*) #3

; Function Attrs: noinline nounwind uwtable
define dso_local void @print(%struct.student* %0) #0 {
  %2 = alloca %struct.student*, align 8
  %3 = alloca %struct.student*, align 8
  store %struct.student* %0, %struct.student** %2, align 8
  %4 = load %struct.student*, %struct.student** %2, align 8
  store %struct.student* %4, %struct.student** %3, align 8
  br label %5

5:                                                ; preds = %8, %1
  %6 = load %struct.student*, %struct.student** %3, align 8
  %7 = icmp ne %struct.student* %6, null
  br i1 %7, label %8, label %32

8:                                                ; preds = %5
  %9 = load %struct.student*, %struct.student** %3, align 8
  %10 = getelementptr inbounds %struct.student, %struct.student* %9, i32 0, i32 0
  %11 = getelementptr inbounds [10 x i8], [10 x i8]* %10, i64 0, i64 0
  %12 = load %struct.student*, %struct.student** %3, align 8
  %13 = getelementptr inbounds %struct.student, %struct.student* %12, i32 0, i32 1
  %14 = getelementptr inbounds [30 x i8], [30 x i8]* %13, i64 0, i64 0
  %15 = load %struct.student*, %struct.student** %3, align 8
  %16 = getelementptr inbounds %struct.student, %struct.student* %15, i32 0, i32 2
  %17 = load i8, i8* %16, align 8
  %18 = sext i8 %17 to i32
  %19 = load %struct.student*, %struct.student** %3, align 8
  %20 = getelementptr inbounds %struct.student, %struct.student* %19, i32 0, i32 3
  %21 = load i32, i32* %20, align 4
  %22 = load %struct.student*, %struct.student** %3, align 8
  %23 = getelementptr inbounds %struct.student, %struct.student* %22, i32 0, i32 4
  %24 = getelementptr inbounds [10 x i8], [10 x i8]* %23, i64 0, i64 0
  %25 = load %struct.student*, %struct.student** %3, align 8
  %26 = getelementptr inbounds %struct.student, %struct.student* %25, i32 0, i32 5
  %27 = getelementptr inbounds [20 x i8], [20 x i8]* %26, i64 0, i64 0
  %28 = call i32 (i8*, ...) @printf(i8* getelementptr inbounds ([19 x i8], [19 x i8]* @.str.3, i64 0, i64 0), i8* %11, i8* %14, i32 %18, i32 %21, i8* %24, i8* %27)
  %29 = load %struct.student*, %struct.student** %3, align 8
  %30 = getelementptr inbounds %struct.student, %struct.student* %29, i32 0, i32 6
  %31 = load %struct.student*, %struct.student** %30, align 8
  store %struct.student* %31, %struct.student** %3, align 8
  br label %5

32:                                               ; preds = %5
  ret void
}

declare dso_local i32 @printf(i8*, ...) #2

; Function Attrs: noinline nounwind uwtable
define dso_local void @main() #0 {
  %1 = call %struct.student* @creat()
  call void @print(%struct.student* %1)
  ret void
}


!llvm.module.flags = !{!0}
!llvm.ident = !{!1}

!0 = !{i32 1, !"wchar_size", i32 4}
!1 = !{!"clang version 10.0.0-4ubuntu1 "}
